target datalayout = "e-m:e-p270:32:32-p271:32:32-p272:64:64-i64:64-i128:128-f80:128-n8:16:32:64-S128"
target triple = "x86_64-pc-linux-gnu"

%struct.SDL_GUID = type { [16 x i8] }
%struct.SDL_VirtualJoystickDesc = type { i32, i16, i16, i16, i16, i16, i16, i16, i16, i16, i16, [2 x i16], i32, i32, ptr, ptr, ptr, ptr, ptr, ptr, ptr, ptr, ptr, ptr, ptr, ptr }
%struct.joystick_hwdata = type { i32, i8, ptr, i32, %struct.SDL_GUID, %struct.SDL_VirtualJoystickDesc, i32, ptr, ptr, ptr, ptr, ptr, ptr, i8, i32, i32, ptr, ptr, ptr }
%struct.SDL_Joystick = type { i32, ptr, ptr, ptr, %struct.SDL_GUID, i16, i64, i8, i8, i32, ptr, i32, ptr, i32, ptr, i32, ptr, i32, ptr, i32, i32, ptr, i16, i16, i64, i64, i16, i16, i64, i64, i8, i8, i8, i64, i8, i32, i32, i32, i8, i32, ptr, i32, ptr, [3 x [3 x float]], i64, ptr, ptr, i32, i32, ptr }
%struct.VirtualSensorEvent = type { i32, i64, [3 x float], i32 }

@.str.16 = private unnamed_addr constant [17 x i8] c"Invalid joystick\00", align 1

; Function Attrs: nounwind uwtable
define hidden zeroext i1 @SDL_SendJoystickVirtualSensorDataInner(ptr noundef %0, i32 noundef %1, i64 noundef %2, ptr noundef %3, i32 noundef %4) #0 {
  %6 = alloca i1, align 1
  %7 = alloca ptr, align 8
  %8 = alloca i32, align 4
  %9 = alloca i64, align 8
  %10 = alloca ptr, align 8
  %11 = alloca i32, align 4
  %12 = alloca ptr, align 8
  %13 = alloca i32, align 4
  %14 = alloca i32, align 4
  %15 = alloca ptr, align 8
  %16 = alloca ptr, align 8
  store ptr %0, ptr %7, align 8
  store i32 %1, ptr %8, align 4
  store i64 %2, ptr %9, align 8
  store ptr %3, ptr %10, align 8
  store i32 %4, ptr %11, align 4
  call void @llvm.lifetime.start.p0(i64 8, ptr %12) #7
  call void @SDL_AssertJoysticksLocked()
  %17 = load ptr, ptr %7, align 8
  %18 = icmp ne ptr %17, null
  br i1 %18, label %19, label %24

19:                                               ; preds = %5
  %20 = load ptr, ptr %7, align 8
  %21 = getelementptr inbounds nuw %struct.SDL_Joystick, ptr %20, i32 0, i32 46
  %22 = load ptr, ptr %21, align 8
  %23 = icmp ne ptr %22, null
  br i1 %23, label %26, label %24

24:                                               ; preds = %19, %5
  %25 = call zeroext i1 (ptr, ...) @SDL_SetError_REAL(ptr noundef @.str.16)
  store i1 %25, ptr %6, align 1
  store i32 1, ptr %13, align 4
  br label %101

26:                                               ; preds = %19
  %27 = load ptr, ptr %7, align 8
  %28 = getelementptr inbounds nuw %struct.SDL_Joystick, ptr %27, i32 0, i32 46
  %29 = load ptr, ptr %28, align 8
  store ptr %29, ptr %12, align 8
  %30 = load ptr, ptr %12, align 8
  %31 = getelementptr inbounds nuw %struct.joystick_hwdata, ptr %30, i32 0, i32 14
  %32 = load i32, ptr %31, align 4
  %33 = load ptr, ptr %12, align 8
  %34 = getelementptr inbounds nuw %struct.joystick_hwdata, ptr %33, i32 0, i32 15
  %35 = load i32, ptr %34, align 8
  %36 = icmp eq i32 %32, %35
  br i1 %36, label %37, label %64

37:                                               ; preds = %26
  call void @llvm.lifetime.start.p0(i64 4, ptr %14) #7
  %38 = load ptr, ptr %12, align 8
  %39 = getelementptr inbounds nuw %struct.joystick_hwdata, ptr %38, i32 0, i32 15
  %40 = load i32, ptr %39, align 8
  %41 = add nsw i32 %40, 1
  store i32 %41, ptr %14, align 4
  call void @llvm.lifetime.start.p0(i64 8, ptr %15) #7
  %42 = load ptr, ptr %12, align 8
  %43 = getelementptr inbounds nuw %struct.joystick_hwdata, ptr %42, i32 0, i32 16
  %44 = load ptr, ptr %43, align 8
  %45 = load i32, ptr %14, align 4
  %46 = sext i32 %45 to i64
  %47 = mul i64 %46, 32
  %48 = call ptr @SDL_realloc_REAL(ptr noundef %44, i64 noundef %47) #9
  store ptr %48, ptr %15, align 8
  %49 = load ptr, ptr %15, align 8
  %50 = icmp ne ptr %49, null
  br i1 %50, label %52, label %51

51:                                               ; preds = %37
  store i1 false, ptr %6, align 1
  store i32 1, ptr %13, align 4
  br label %61

52:                                               ; preds = %37
  %53 = load ptr, ptr %15, align 8
  %54 = load ptr, ptr %12, align 8
  %55 = getelementptr inbounds nuw %struct.joystick_hwdata, ptr %54, i32 0, i32 16
  store ptr %53, ptr %55, align 8
  %56 = load ptr, ptr %12, align 8
  %57 = getelementptr inbounds nuw %struct.joystick_hwdata, ptr %56, i32 0, i32 15
  %58 = load i32, ptr %57, align 8
  %59 = load ptr, ptr %12, align 8
  %60 = getelementptr inbounds nuw %struct.joystick_hwdata, ptr %59, i32 0, i32 15
  store i32 %58, ptr %60, align 8
  store i32 0, ptr %13, align 4
  br label %61

61:                                               ; preds = %52, %51
  call void @llvm.lifetime.end.p0(i64 8, ptr %15) #7
  call void @llvm.lifetime.end.p0(i64 4, ptr %14) #7
  %62 = load i32, ptr %13, align 4
  switch i32 %62, label %101 [
    i32 0, label %63
  ]

63:                                               ; preds = %61
  br label %64

64:                                               ; preds = %63, %26
  call void @llvm.lifetime.start.p0(i64 8, ptr %16) #7
  %65 = load ptr, ptr %12, align 8
  %66 = getelementptr inbounds nuw %struct.joystick_hwdata, ptr %65, i32 0, i32 16
  %67 = load ptr, ptr %66, align 8
  %68 = load ptr, ptr %12, align 8
  %69 = getelementptr inbounds nuw %struct.joystick_hwdata, ptr %68, i32 0, i32 14
  %70 = load i32, ptr %69, align 4
  %71 = add nsw i32 %70, 1
  store i32 %71, ptr %69, align 4
  %72 = sext i32 %70 to i64
  %73 = getelementptr inbounds %struct.VirtualSensorEvent, ptr %67, i64 %72
  store ptr %73, ptr %16, align 8
  %74 = load i32, ptr %8, align 4
  %75 = load ptr, ptr %16, align 8
  %76 = getelementptr inbounds nuw %struct.VirtualSensorEvent, ptr %75, i32 0, i32 0
  store i32 %74, ptr %76, align 8
  %77 = load i64, ptr %9, align 8
  %78 = load ptr, ptr %16, align 8
  %79 = getelementptr inbounds nuw %struct.VirtualSensorEvent, ptr %78, i32 0, i32 1
  store i64 %77, ptr %79, align 8
  %80 = load i32, ptr %11, align 4
  %81 = sext i32 %80 to i64
  %82 = icmp ult i64 %81, 3
  br i1 %82, label %83, label %86

83:                                               ; preds = %64
  %84 = load i32, ptr %11, align 4
  %85 = sext i32 %84 to i64
  br label %87

86:                                               ; preds = %64
  br label %87

87:                                               ; preds = %86, %83
  %88 = phi i64 [ %85, %83 ], [ 3, %86 ]
  %89 = trunc i64 %88 to i32
  %90 = load ptr, ptr %16, align 8
  %91 = getelementptr inbounds nuw %struct.VirtualSensorEvent, ptr %90, i32 0, i32 3
  store i32 %89, ptr %91, align 4
  %92 = load ptr, ptr %16, align 8
  %93 = getelementptr inbounds nuw %struct.VirtualSensorEvent, ptr %92, i32 0, i32 2
  %94 = getelementptr inbounds [3 x float], ptr %93, i64 0, i64 0
  %95 = load ptr, ptr %10, align 8
  %96 = load ptr, ptr %16, align 8
  %97 = getelementptr inbounds nuw %struct.VirtualSensorEvent, ptr %96, i32 0, i32 3
  %98 = load i32, ptr %97, align 4
  %99 = sext i32 %98 to i64
  %100 = mul i64 %99, 4
  call void @llvm.memcpy.p0.p0.i64(ptr align 8 %94, ptr align 4 %95, i64 %100, i1 false)
  store i1 true, ptr %6, align 1
  store i32 1, ptr %13, align 4
  call void @llvm.lifetime.end.p0(i64 8, ptr %16) #7
  br label %101

101:                                              ; preds = %87, %61, %24
  call void @llvm.lifetime.end.p0(i64 8, ptr %12) #7
  %102 = load i1, ptr %6, align 1
  ret i1 %102
}