; Function Attrs: nounwind uwtable
define hidden zeroext i1 @SDL_SendJoystickVirtualSensorDataInner(ptr noundef readonly captures(address_is_null) %0, i32 noundef %1, i64 noundef %2, ptr noundef readonly captures(none) %3, i32 noundef %4) local_unnamed_addr #0 {
  tail call void @SDL_AssertJoysticksLocked() #8
  %.not = icmp eq ptr %0, null
  br i1 %.not, label %9, label %6

6:                                                ; preds = %5
  %7 = getelementptr inbounds nuw i8, ptr %0, i64 328
  %8 = load ptr, ptr %7, align 8
  %.not31 = icmp eq ptr %8, null
  br i1 %.not31, label %9, label %11

9:                                                ; preds = %6, %5
  %10 = tail call zeroext i1 (ptr, ...) @SDL_SetError_REAL(ptr noundef nonnull @.str.16) #8
  br label %.critedge

11:                                               ; preds = %6
  %12 = getelementptr inbounds nuw i8, ptr %8, i64 236
  %13 = load i32, ptr %12, align 4
  %14 = getelementptr inbounds nuw i8, ptr %8, i64 240
  %15 = load i32, ptr %14, align 8
  %16 = icmp eq i32 %13, %15
  br i1 %16, label %17, label %._crit_edge

._crit_edge:                                      ; preds = %11
  %.phi.trans.insert = getelementptr inbounds nuw i8, ptr %8, i64 248
  %.pre = load ptr, ptr %.phi.trans.insert, align 8
  br label %25

17:                                               ; preds = %11
  %18 = add nsw i32 %13, 1
  %19 = getelementptr inbounds nuw i8, ptr %8, i64 248
  %20 = load ptr, ptr %19, align 8
  %21 = sext i32 %18 to i64
  %22 = shl nsw i64 %21, 5
  %23 = tail call ptr @SDL_realloc_REAL(ptr noundef %20, i64 noundef %22) #10
  %.not32.not = icmp eq ptr %23, null
  br i1 %.not32.not, label %.critedge, label %24

24:                                               ; preds = %17
  store ptr %23, ptr %19, align 8
  %.pre33 = load i32, ptr %12, align 4
  br label %25

25:                                               ; preds = %._crit_edge, %24
  %26 = phi i32 [ %13, %._crit_edge ], [ %.pre33, %24 ]
  %27 = phi ptr [ %.pre, %._crit_edge ], [ %23, %24 ]
  %28 = add nsw i32 %26, 1
  store i32 %28, ptr %12, align 4
  %29 = sext i32 %26 to i64
  %30 = getelementptr inbounds %struct.VirtualSensorEvent, ptr %27, i64 %29
  store i32 %1, ptr %30, align 8
  %31 = getelementptr inbounds nuw i8, ptr %30, i64 8
  store i64 %2, ptr %31, align 8
  %32 = tail call i32 @llvm.umin.i32(i32 %4, i32 3)
  %33 = getelementptr inbounds nuw i8, ptr %30, i64 28
  store i32 %32, ptr %33, align 4
  %34 = getelementptr inbounds nuw i8, ptr %30, i64 16
  %35 = shl nuw nsw i32 %32, 2
  %36 = zext nneg i32 %35 to i64
  tail call void @llvm.memcpy.p0.p0.i64(ptr nonnull align 8 %34, ptr align 4 %3, i64 %36, i1 false)
  br label %.critedge

.critedge:                                        ; preds = %17, %25, %9
  %.0 = phi i1 [ true, %25 ], [ %10, %9 ], [ false, %17 ]
  ret i1 %.0
}